; ModuleID = 'source-C-CXX/3/1216.c'
source_filename = "source-C-CXX/3/1216.c"
target datalayout = "e-m:e-p270:32:32-p271:32:32-p272:64:64-i64:64-f80:128-n8:16:32:64-S128"
target triple = "x86_64-pc-linux-gnu"

@.str = private unnamed_addr constant [6 x i8] c"%d %d\00", align 1
@.str.1 = private unnamed_addr constant [3 x i8] c"%d\00", align 1
@.str.2 = private unnamed_addr constant [4 x i8] c"%d\0A\00", align 1

; Function Attrs: nofree nounwind sspstrong uwtable
define dso_local i32 @main() local_unnamed_addr #0 {
  %1 = alloca [100 x [100 x i32]], align 16
  %2 = alloca i32, align 4
  %3 = alloca i32, align 4
  %4 = bitcast [100 x [100 x i32]]* %1 to i8*
  call void @llvm.lifetime.start.p0i8(i64 40000, i8* nonnull %4) #4
  call void @llvm.memset.p0i8.i64(i8* noundef nonnull align 16 dereferenceable(40000) %4, i8 0, i64 40000, i1 false)
  %5 = bitcast i32* %2 to i8*
  call void @llvm.lifetime.start.p0i8(i64 4, i8* nonnull %5) #4
  %6 = bitcast i32* %3 to i8*
  call void @llvm.lifetime.start.p0i8(i64 4, i8* nonnull %6) #4
  %7 = call i32 (i8*, ...) @__isoc99_scanf(i8* getelementptr inbounds ([6 x i8], [6 x i8]* @.str, i64 0, i64 0), i32* nonnull %2, i32* nonnull %3)
  %8 = load i32, i32* %2, align 4, !tbaa !5
  %9 = icmp sgt i32 %8, 0
  %10 = load i32, i32* %3, align 4, !tbaa !5
  br i1 %9, label %11, label %18

11:                                               ; preds = %0
  %12 = icmp sgt i32 %10, 0
  br i1 %12, label %13, label %46

13:                                               ; preds = %11, %34
  %14 = phi i32 [ %35, %34 ], [ %8, %11 ]
  %15 = phi i32 [ %36, %34 ], [ %10, %11 ]
  %16 = phi i64 [ %37, %34 ], [ 0, %11 ]
  %17 = icmp sgt i32 %15, 0
  br i1 %17, label %24, label %34

18:                                               ; preds = %34, %0
  %19 = phi i32 [ %8, %0 ], [ %35, %34 ]
  %20 = phi i32 [ %10, %0 ], [ %36, %34 ]
  %21 = icmp sgt i32 %20, 0
  br i1 %21, label %22, label %46

22:                                               ; preds = %18
  %23 = icmp sgt i32 %19, 0
  br i1 %23, label %40, label %104

24:                                               ; preds = %13, %24
  %25 = phi i64 [ %28, %24 ], [ 0, %13 ]
  %26 = getelementptr inbounds [100 x [100 x i32]], [100 x [100 x i32]]* %1, i64 0, i64 %16, i64 %25
  %27 = call i32 (i8*, ...) @__isoc99_scanf(i8* getelementptr inbounds ([3 x i8], [3 x i8]* @.str.1, i64 0, i64 0), i32* nonnull %26)
  %28 = add nuw nsw i64 %25, 1
  %29 = load i32, i32* %3, align 4, !tbaa !5
  %30 = sext i32 %29 to i64
  %31 = icmp slt i64 %28, %30
  br i1 %31, label %24, label %32, !llvm.loop !9

32:                                               ; preds = %24
  %33 = load i32, i32* %2, align 4, !tbaa !5
  br label %34

34:                                               ; preds = %32, %13
  %35 = phi i32 [ %33, %32 ], [ %14, %13 ]
  %36 = phi i32 [ %29, %32 ], [ %15, %13 ]
  %37 = add nuw nsw i64 %16, 1
  %38 = sext i32 %35 to i64
  %39 = icmp slt i64 %37, %38
  br i1 %39, label %13, label %18, !llvm.loop !11

40:                                               ; preds = %22, %65
  %41 = phi i32 [ %66, %65 ], [ %20, %22 ]
  %42 = phi i32 [ %67, %65 ], [ %19, %22 ]
  %43 = phi i64 [ %70, %65 ], [ 0, %22 ]
  %44 = phi i32 [ %68, %65 ], [ 0, %22 ]
  %45 = icmp sgt i32 %42, 0
  br i1 %45, label %50, label %65

46:                                               ; preds = %65, %11, %18
  %47 = phi i32 [ %20, %18 ], [ %10, %11 ], [ %66, %65 ]
  %48 = phi i32 [ %19, %18 ], [ %8, %11 ], [ %67, %65 ]
  %49 = icmp sgt i32 %48, 1
  br i1 %49, label %71, label %104

50:                                               ; preds = %40, %50
  %51 = phi i64 [ %56, %50 ], [ 0, %40 ]
  %52 = phi i64 [ %57, %50 ], [ %43, %40 ]
  %53 = getelementptr inbounds [100 x [100 x i32]], [100 x [100 x i32]]* %1, i64 0, i64 %51, i64 %52
  %54 = load i32, i32* %53, align 4, !tbaa !5
  %55 = call i32 (i8*, ...) @printf(i8* nonnull dereferenceable(1) getelementptr inbounds ([4 x i8], [4 x i8]* @.str.2, i64 0, i64 0), i32 %54)
  %56 = add nuw nsw i64 %51, 1
  %57 = add nsw i64 %52, -1
  %58 = icmp ne i64 %52, 0
  %59 = load i32, i32* %2, align 4
  %60 = sext i32 %59 to i64
  %61 = icmp slt i64 %56, %60
  %62 = select i1 %58, i1 %61, i1 false
  br i1 %62, label %50, label %63, !llvm.loop !13

63:                                               ; preds = %50
  %64 = load i32, i32* %3, align 4, !tbaa !5
  br label %65

65:                                               ; preds = %63, %40
  %66 = phi i32 [ %64, %63 ], [ %41, %40 ]
  %67 = phi i32 [ %59, %63 ], [ %42, %40 ]
  %68 = add nuw nsw i32 %44, 1
  %69 = icmp slt i32 %68, %66
  %70 = add nuw nsw i64 %43, 1
  br i1 %69, label %40, label %46, !llvm.loop !14

71:                                               ; preds = %46, %101
  %72 = phi i32 [ %98, %101 ], [ %48, %46 ]
  %73 = phi i32 [ %103, %101 ], [ %47, %46 ]
  %74 = phi i64 [ %102, %101 ], [ 1, %46 ]
  %75 = phi i32 [ %99, %101 ], [ 1, %46 ]
  %76 = icmp slt i32 %75, %72
  br i1 %76, label %77, label %97

77:                                               ; preds = %71
  %78 = sext i32 %73 to i64
  %79 = add nsw i64 %78, -1
  %80 = getelementptr inbounds [100 x [100 x i32]], [100 x [100 x i32]]* %1, i64 0, i64 %74, i64 %79
  %81 = load i32, i32* %80, align 4, !tbaa !5
  %82 = icmp eq i32 %81, 0
  br i1 %82, label %97, label %88

83:                                               ; preds = %88
  %84 = add nsw i64 %90, -1
  %85 = getelementptr inbounds [100 x [100 x i32]], [100 x [100 x i32]]* %1, i64 0, i64 %93, i64 %84
  %86 = load i32, i32* %85, align 4, !tbaa !5
  %87 = icmp eq i32 %86, 0
  br i1 %87, label %97, label %88, !llvm.loop !15

88:                                               ; preds = %77, %83
  %89 = phi i32 [ %86, %83 ], [ %81, %77 ]
  %90 = phi i64 [ %84, %83 ], [ %79, %77 ]
  %91 = phi i64 [ %93, %83 ], [ %74, %77 ]
  %92 = call i32 (i8*, ...) @printf(i8* nonnull dereferenceable(1) getelementptr inbounds ([4 x i8], [4 x i8]* @.str.2, i64 0, i64 0), i32 %89)
  %93 = add nuw nsw i64 %91, 1
  %94 = load i32, i32* %2, align 4, !tbaa !5
  %95 = trunc i64 %93 to i32
  %96 = icmp sgt i32 %94, %95
  br i1 %96, label %83, label %97, !llvm.loop !15

97:                                               ; preds = %83, %88, %77, %71
  %98 = phi i32 [ %72, %71 ], [ %72, %77 ], [ %94, %88 ], [ %94, %83 ]
  %99 = add nuw nsw i32 %75, 1
  %100 = icmp slt i32 %99, %98
  br i1 %100, label %101, label %104, !llvm.loop !16

101:                                              ; preds = %97
  %102 = add nuw nsw i64 %74, 1
  %103 = load i32, i32* %3, align 4, !tbaa !5
  br label %71

104:                                              ; preds = %97, %22, %46
  call void @llvm.lifetime.end.p0i8(i64 4, i8* nonnull %6) #4
  call void @llvm.lifetime.end.p0i8(i64 4, i8* nonnull %5) #4
  call void @llvm.lifetime.end.p0i8(i64 40000, i8* nonnull %4) #4
  ret i32 0
}

; Function Attrs: argmemonly mustprogress nofree nosync nounwind willreturn
declare void @llvm.lifetime.start.p0i8(i64 immarg, i8* nocapture) #1

; Function Attrs: argmemonly mustprogress nofree nounwind willreturn writeonly
declare void @llvm.memset.p0i8.i64(i8* nocapture writeonly, i8, i64, i1 immarg) #2

; Function Attrs: nofree nounwind
declare noundef i32 @__isoc99_scanf(i8* nocapture noundef readonly, ...) local_unnamed_addr #3

; Function Attrs: nofree nounwind
declare noundef i32 @printf(i8* nocapture noundef readonly, ...) local_unnamed_addr #3

; Function Attrs: argmemonly mustprogress nofree nosync nounwind willreturn
declare void @llvm.lifetime.end.p0i8(i64 immarg, i8* nocapture) #1


!llvm.module.flags = !{!0, !1, !2, !3}
!llvm.ident = !{!4}

!0 = !{i32 1, !"wchar_size", i32 4}
!1 = !{i32 7, !"PIC Level", i32 2}
!2 = !{i32 7, !"PIE Level", i32 2}
!3 = !{i32 7, !"uwtable", i32 1}
!4 = !{!"clang version 13.0.0"}
!5 = !{!6, !6, i64 0}
!6 = !{!"int", !7, i64 0}
!7 = !{!"omnipotent char", !8, i64 0}
!8 = !{!"Simple C/C++ TBAA"}
!9 = distinct !{!9, !10}
!10 = !{!"llvm.loop.mustprogress"}
!11 = distinct !{!11, !10, !12}
!12 = !{!"llvm.loop.unswitch.partial.disable"}
!13 = distinct !{!13, !10}
!14 = distinct !{!14, !10, !12}
!15 = distinct !{!15, !10}
!16 = distinct !{!16, !10}
